target datalayout = "e-m:e-p270:32:32-p271:32:32-p272:64:64-i64:64-i128:128-f80:128-n8:16:32:64-S128"
target triple = "x86_64-pc-linux-gnu"

%struct._zval_struct = type { %union._zend_value, %union.anon, %union.anon.2 }
%union._zend_value = type { i64 }
%union.anon = type { i32 }
%union.anon.2 = type { i32 }
%struct._zend_refcounted_h = type { i32, %union.anon.3 }
%union.anon.3 = type { i32 }
%struct._spl_fixedarray_object = type { %struct._spl_fixedarray, ptr, %struct._zend_object }
%struct._spl_fixedarray = type { i64, ptr, i64 }
%struct._zend_object = type { %struct._zend_refcounted_h, i32, ptr, ptr, ptr, [1 x %struct._zval_struct] }
%struct._spl_fixedarray_it = type { %struct._zend_object_iterator, i64 }
%struct._zend_object_iterator = type { %struct._zend_object, %struct._zval_struct, ptr, i64 }

; Function Attrs: nounwind uwtable
define internal ptr @spl_fixed_array_from_obj(ptr noundef %0) #0 {
  %2 = alloca ptr, align 8
  store ptr %0, ptr %2, align 8
  %3 = load ptr, ptr %2, align 8
  %4 = getelementptr inbounds i8, ptr %3, i64 -32
  ret ptr %4
}

; Function Attrs: nounwind uwtable
define internal i32 @spl_fixedarray_it_valid(ptr noundef %0) #0 {
  %2 = alloca i32, align 4
  %3 = alloca ptr, align 8
  %4 = alloca ptr, align 8
  %5 = alloca ptr, align 8
  store ptr %0, ptr %3, align 8
  %6 = load ptr, ptr %3, align 8
  store ptr %6, ptr %4, align 8
  %7 = load ptr, ptr %3, align 8
  %8 = getelementptr inbounds %struct._zend_object_iterator, ptr %7, i32 0, i32 1
  %9 = getelementptr inbounds %struct._zval_struct, ptr %8, i32 0, i32 0
  %10 = load ptr, ptr %9, align 8
  %11 = call ptr @spl_fixed_array_from_obj(ptr noundef %10)
  store ptr %11, ptr %5, align 8
  %12 = load ptr, ptr %4, align 8
  %13 = getelementptr inbounds %struct._spl_fixedarray_it, ptr %12, i32 0, i32 1
  %14 = load i64, ptr %13, align 8
  %15 = icmp sge i64 %14, 0
  br i1 %15, label %16, label %26

16:                                               ; preds = %1
  %17 = load ptr, ptr %4, align 8
  %18 = getelementptr inbounds %struct._spl_fixedarray_it, ptr %17, i32 0, i32 1
  %19 = load i64, ptr %18, align 8
  %20 = load ptr, ptr %5, align 8
  %21 = getelementptr inbounds %struct._spl_fixedarray_object, ptr %20, i32 0, i32 0
  %22 = getelementptr inbounds %struct._spl_fixedarray, ptr %21, i32 0, i32 0
  %23 = load i64, ptr %22, align 8
  %24 = icmp slt i64 %19, %23
  br i1 %24, label %25, label %26

25:                                               ; preds = %16
  store i32 0, ptr %2, align 4
  br label %27

26:                                               ; preds = %16, %1
  store i32 -1, ptr %2, align 4
  br label %27

27:                                               ; preds = %26, %25
  %28 = load i32, ptr %2, align 4
  ret i32 %28
}