; Function Attrs: mustprogress nofree norecurse nosync nounwind willreturn memory(read, inaccessiblemem: none) uwtable
define internal noundef i32 @spl_fixedarray_it_valid(ptr nocapture noundef readonly %0) #7 {
  %2 = getelementptr inbounds i8, ptr %0, i64 88
  %3 = load i64, ptr %2, align 8
  %4 = icmp sgt i64 %3, -1
  br i1 %4, label %5, label %11

5:                                                ; preds = %1
  %6 = getelementptr inbounds i8, ptr %0, i64 56
  %7 = load ptr, ptr %6, align 8
  %8 = getelementptr inbounds i8, ptr %7, i64 -32
  %9 = load i64, ptr %8, align 8
  %10 = icmp slt i64 %3, %9
  br i1 %10, label %12, label %11

11:                                               ; preds = %5, %1
  br label %12

12:                                               ; preds = %5, %11
  %.0 = phi i32 [ -1, %11 ], [ 0, %5 ]
  ret i32 %.0
}